target datalayout = "e-m:e-p270:32:32-p271:32:32-p272:64:64-i64:64-i128:128-f80:128-n8:16:32:64-S128"
target triple = "x86_64-pc-linux-gnu"

%union.pthread_mutex_t = type { %struct.__pthread_mutex_s }
%struct.__pthread_mutex_s = type { i32, i32, i32, i32, i32, i16, i16, %struct.__pthread_internal_list }
%struct.__pthread_internal_list = type { ptr, ptr }
%struct.Pdr_Par_t_ = type { i32, i32, i32, i32, i32, i32, i32, i32, i32, i32, i32, i32, i32, i32, i32, i32, i32, i32, i32, i32, i32, i32, i32, i32, i32, i32, i32, i32, i32, i32, i32, i32, i32, i32, i32, i32, i32, i32, ptr, ptr, i64, ptr, ptr }
%struct.Abs_ThData_t_ = type { ptr, i32, i32 }

@g_mutex = global %union.pthread_mutex_t zeroinitializer, align 8
@g_fAbstractionProved = internal global i32 0, align 4
@.str = private unnamed_addr constant [24 x i8] c"Proved abstraction %d.\0A\00", align 1
@.str.1 = private unnamed_addr constant [27 x i8] c"Disproved abstraction %d.\0A\00", align 1
@.str.2 = private unnamed_addr constant [27 x i8] c"Cancelled abstraction %d.\0A\00", align 1

; Function Attrs: nounwind uwtable
define ptr @Abs_ProverThread(ptr noundef %0) #0 {
  %2 = alloca ptr, align 8
  %3 = alloca ptr, align 8
  %4 = alloca %struct.Pdr_Par_t_, align 8
  %5 = alloca ptr, align 8
  %6 = alloca i32, align 4
  %7 = alloca i32, align 4
  store ptr %0, ptr %2, align 8, !tbaa !21
  call void @llvm.lifetime.start.p0(i64 8, ptr %3) #10
  %8 = load ptr, ptr %2, align 8, !tbaa !21
  store ptr %8, ptr %3, align 8, !tbaa !22
  call void @llvm.lifetime.start.p0(i64 192, ptr %4) #10
  call void @llvm.lifetime.start.p0(i64 8, ptr %5) #10
  store ptr %4, ptr %5, align 8, !tbaa !10
  call void @llvm.lifetime.start.p0(i64 4, ptr %6) #10
  call void @llvm.lifetime.start.p0(i64 4, ptr %7) #10
  %9 = load ptr, ptr %5, align 8, !tbaa !10
  call void @Pdr_ManSetDefaultParams(ptr noundef %9)
  %10 = load ptr, ptr %5, align 8, !tbaa !10
  %11 = getelementptr inbounds nuw %struct.Pdr_Par_t_, ptr %10, i32 0, i32 28
  store i32 1, ptr %11, align 8, !tbaa !24
  %12 = load ptr, ptr %3, align 8, !tbaa !22
  %13 = getelementptr inbounds nuw %struct.Abs_ThData_t_, ptr %12, i32 0, i32 2
  %14 = load i32, ptr %13, align 4, !tbaa !25
  %15 = load ptr, ptr %5, align 8, !tbaa !10
  %16 = getelementptr inbounds nuw %struct.Pdr_Par_t_, ptr %15, i32 0, i32 37
  store i32 %14, ptr %16, align 4, !tbaa !20
  %17 = load ptr, ptr %5, align 8, !tbaa !10
  %18 = getelementptr inbounds nuw %struct.Pdr_Par_t_, ptr %17, i32 0, i32 38
  store ptr @Abs_CallBackToStop, ptr %18, align 8, !tbaa !16
  %19 = load ptr, ptr %3, align 8, !tbaa !22
  %20 = getelementptr inbounds nuw %struct.Abs_ThData_t_, ptr %19, i32 0, i32 0
  %21 = load ptr, ptr %20, align 8, !tbaa !27
  %22 = load ptr, ptr %5, align 8, !tbaa !10
  %23 = call i32 @Pdr_ManSolve(ptr noundef %21, ptr noundef %22)
  store i32 %23, ptr %6, align 4, !tbaa !3
  %24 = load i32, ptr %6, align 4, !tbaa !3
  %25 = icmp eq i32 %24, 1
  br i1 %25, label %26, label %29

26:                                               ; preds = %1
  %27 = call i32 @pthread_mutex_lock(ptr noundef @g_mutex) #10
  store i32 %27, ptr %7, align 4, !tbaa !3
  store volatile i32 1, ptr @g_fAbstractionProved, align 4, !tbaa !3
  %28 = call i32 @pthread_mutex_unlock(ptr noundef @g_mutex) #10
  store i32 %28, ptr %7, align 4, !tbaa !3
  br label %29

29:                                               ; preds = %26, %1
  %30 = load ptr, ptr %3, align 8, !tbaa !22
  %31 = getelementptr inbounds nuw %struct.Abs_ThData_t_, ptr %30, i32 0, i32 1
  %32 = load i32, ptr %31, align 8, !tbaa !28
  %33 = icmp ne i32 %32, 0
  br i1 %33, label %34, label %59

34:                                               ; preds = %29
  %35 = load i32, ptr %6, align 4, !tbaa !3
  %36 = icmp eq i32 %35, 1
  br i1 %36, label %37, label %41

37:                                               ; preds = %34
  %38 = load ptr, ptr %3, align 8, !tbaa !22
  %39 = getelementptr inbounds nuw %struct.Abs_ThData_t_, ptr %38, i32 0, i32 2
  %40 = load i32, ptr %39, align 4, !tbaa !25
  call void (i32, ptr, ...) @Abc_Print(i32 noundef 1, ptr noundef @.str, i32 noundef %40)
  br label %58

41:                                               ; preds = %34
  %42 = load i32, ptr %6, align 4, !tbaa !3
  %43 = icmp eq i32 %42, 0
  br i1 %43, label %44, label %48

44:                                               ; preds = %41
  %45 = load ptr, ptr %3, align 8, !tbaa !22
  %46 = getelementptr inbounds nuw %struct.Abs_ThData_t_, ptr %45, i32 0, i32 2
  %47 = load i32, ptr %46, align 4, !tbaa !25
  call void (i32, ptr, ...) @Abc_Print(i32 noundef 1, ptr noundef @.str.1, i32 noundef %47)
  br label %57

48:                                               ; preds = %41
  %49 = load i32, ptr %6, align 4, !tbaa !3
  %50 = icmp eq i32 %49, -1
  br i1 %50, label %51, label %55

51:                                               ; preds = %48
  %52 = load ptr, ptr %3, align 8, !tbaa !22
  %53 = getelementptr inbounds nuw %struct.Abs_ThData_t_, ptr %52, i32 0, i32 2
  %54 = load i32, ptr %53, align 4, !tbaa !25
  call void (i32, ptr, ...) @Abc_Print(i32 noundef 1, ptr noundef @.str.2, i32 noundef %54)
  br label %56

55:                                               ; preds = %48
  br label %56

56:                                               ; preds = %55, %51
  br label %57

57:                                               ; preds = %56, %44
  br label %58

58:                                               ; preds = %57, %37
  br label %59

59:                                               ; preds = %58, %29
  %60 = load ptr, ptr %3, align 8, !tbaa !22
  %61 = getelementptr inbounds nuw %struct.Abs_ThData_t_, ptr %60, i32 0, i32 0
  %62 = load ptr, ptr %61, align 8, !tbaa !27
  call void @Aig_ManStop(ptr noundef %62)
  %63 = load ptr, ptr %3, align 8, !tbaa !22
  %64 = icmp ne ptr %63, null
  br i1 %64, label %65, label %67

65:                                               ; preds = %59
  %66 = load ptr, ptr %3, align 8, !tbaa !22
  call void @free(ptr noundef %66) #10
  store ptr null, ptr %3, align 8, !tbaa !22
  br label %68

67:                                               ; preds = %59
  br label %68

68:                                               ; preds = %67, %65
  call void @pthread_exit(ptr noundef null) #12
  unreachable
}