; Function Attrs: noreturn nounwind uwtable
define noalias noundef nonnull ptr @Abs_ProverThread(ptr noundef captures(none) %0) #4 {
  %2 = alloca %struct.Pdr_Par_t_, align 8
  call void @llvm.lifetime.start.p0(i64 192, ptr nonnull %2) #13
  call void @Pdr_ManSetDefaultParams(ptr noundef nonnull %2) #13
  %3 = getelementptr inbounds nuw i8, ptr %2, i64 112
  store i32 1, ptr %3, align 8, !tbaa !16
  %4 = getelementptr inbounds nuw i8, ptr %0, i64 12
  %5 = load i32, ptr %4, align 4, !tbaa !17
  %6 = getelementptr inbounds nuw i8, ptr %2, i64 148
  store i32 %5, ptr %6, align 4, !tbaa !13
  %7 = getelementptr inbounds nuw i8, ptr %2, i64 152
  store ptr @Abs_CallBackToStop, ptr %7, align 8, !tbaa !7
  %8 = load ptr, ptr %0, align 8, !tbaa !20
  %9 = call i32 @Pdr_ManSolve(ptr noundef %8, ptr noundef nonnull %2) #13
  %10 = icmp eq i32 %9, 1
  br i1 %10, label %11, label %.thread

11:                                               ; preds = %1
  %12 = call i32 @pthread_mutex_lock(ptr noundef nonnull @g_mutex) #13
  store volatile i32 1, ptr @g_fAbstractionProved, align 4, !tbaa !3
  %13 = call i32 @pthread_mutex_unlock(ptr noundef nonnull @g_mutex) #13
  %14 = getelementptr inbounds nuw i8, ptr %0, i64 8
  %15 = load i32, ptr %14, align 8, !tbaa !21
  %.not = icmp eq i32 %15, 0
  br i1 %.not, label %20, label %.sink.split

.thread:                                          ; preds = %1
  %16 = getelementptr inbounds nuw i8, ptr %0, i64 8
  %17 = load i32, ptr %16, align 8, !tbaa !21
  %.not18 = icmp eq i32 %17, 0
  br i1 %.not18, label %20, label %.thread19

.thread19:                                        ; preds = %.thread
  switch i32 %9, label %20 [
    i32 0, label %.sink.split
    i32 -1, label %18
  ]

18:                                               ; preds = %.thread19
  br label %.sink.split

.sink.split:                                      ; preds = %.thread19, %11, %18
  %.str.sink = phi ptr [ @.str.2, %18 ], [ @.str, %11 ], [ @.str.1, %.thread19 ]
  %19 = load i32, ptr %4, align 4, !tbaa !17
  call void (i32, ptr, ...) @Abc_Print(i32 poison, ptr noundef nonnull %.str.sink, i32 noundef %19)
  br label %20

20:                                               ; preds = %.sink.split, %.thread, %.thread19, %11
  %21 = load ptr, ptr %0, align 8, !tbaa !20
  call void @Aig_ManStop(ptr noundef %21) #13
  call void @free(ptr noundef nonnull %0) #13
  call void @pthread_exit(ptr noundef null) #14
  unreachable
}